target datalayout = "e-m:e-p270:32:32-p271:32:32-p272:64:64-i64:64-i128:128-f80:128-n8:16:32:64-S128"
target triple = "x86_64-unknown-linux-gnu"

%"struct.rocksdb::CacheRecordHeader" = type { i32, i32, i32, i32 }
%"struct.rocksdb::CacheRecord" = type { %"struct.rocksdb::CacheRecordHeader", %"class.rocksdb::Slice", %"class.rocksdb::Slice" }
%"class.rocksdb::Slice" = type { ptr, i64 }

; Function Attrs: mustprogress nounwind uwtable
define linkonce_odr noundef i64 @_ZNK7rocksdb5Slice4sizeEv(ptr noundef nonnull align 8 dereferenceable(16) %this) #2 comdat align 2 {
entry:
  %this.addr = alloca ptr, align 8
  store ptr %this, ptr %this.addr, align 8
  %this1 = load ptr, ptr %this.addr, align 8
  %size_ = getelementptr inbounds %"class.rocksdb::Slice", ptr %this1, i32 0, i32 1
  %0 = load i64, ptr %size_, align 8
  ret i64 %0
}

; Function Attrs: mustprogress nounwind uwtable
define linkonce_odr noundef ptr @_ZNK7rocksdb5Slice4dataEv(ptr noundef nonnull align 8 dereferenceable(16) %this) #2 comdat align 2 {
entry:
  %this.addr = alloca ptr, align 8
  store ptr %this, ptr %this.addr, align 8
  %this1 = load ptr, ptr %this.addr, align 8
  %data_ = getelementptr inbounds %"class.rocksdb::Slice", ptr %this1, i32 0, i32 0
  %0 = load ptr, ptr %data_, align 8
  ret ptr %0
}

; Function Attrs: mustprogress uwtable
define noundef i32 @_ZNK7rocksdb11CacheRecord10ComputeCRCEv(ptr noundef nonnull align 8 dereferenceable(48) %this) #0 align 2 {
entry:
  %this.addr = alloca ptr, align 8
  %crc = alloca i32, align 4
  %tmp = alloca %"struct.rocksdb::CacheRecordHeader", align 4
  store ptr %this, ptr %this.addr, align 8
  %this1 = load ptr, ptr %this.addr, align 8
  store i32 0, ptr %crc, align 4
  %hdr_ = getelementptr inbounds %"struct.rocksdb::CacheRecord", ptr %this1, i32 0, i32 0
  call void @llvm.memcpy.p0.p0.i64(ptr align 4 %tmp, ptr align 8 %hdr_, i64 16, i1 false)
  %crc_ = getelementptr inbounds %"struct.rocksdb::CacheRecordHeader", ptr %tmp, i32 0, i32 1
  store i32 0, ptr %crc_, align 4
  %0 = load i32, ptr %crc, align 4
  %call = call noundef i32 @_ZN7rocksdb6crc32c6ExtendEjPKcm(i32 noundef %0, ptr noundef %tmp, i64 noundef 16)
  store i32 %call, ptr %crc, align 4
  %1 = load i32, ptr %crc, align 4
  %key_ = getelementptr inbounds %"struct.rocksdb::CacheRecord", ptr %this1, i32 0, i32 1
  %call2 = call noundef ptr @_ZNK7rocksdb5Slice4dataEv(ptr noundef nonnull align 8 dereferenceable(16) %key_)
  %key_3 = getelementptr inbounds %"struct.rocksdb::CacheRecord", ptr %this1, i32 0, i32 1
  %call4 = call noundef i64 @_ZNK7rocksdb5Slice4sizeEv(ptr noundef nonnull align 8 dereferenceable(16) %key_3)
  %call5 = call noundef i32 @_ZN7rocksdb6crc32c6ExtendEjPKcm(i32 noundef %1, ptr noundef %call2, i64 noundef %call4)
  store i32 %call5, ptr %crc, align 4
  %2 = load i32, ptr %crc, align 4
  %val_ = getelementptr inbounds %"struct.rocksdb::CacheRecord", ptr %this1, i32 0, i32 2
  %call6 = call noundef ptr @_ZNK7rocksdb5Slice4dataEv(ptr noundef nonnull align 8 dereferenceable(16) %val_)
  %val_7 = getelementptr inbounds %"struct.rocksdb::CacheRecord", ptr %this1, i32 0, i32 2
  %call8 = call noundef i64 @_ZNK7rocksdb5Slice4sizeEv(ptr noundef nonnull align 8 dereferenceable(16) %val_7)
  %call9 = call noundef i32 @_ZN7rocksdb6crc32c6ExtendEjPKcm(i32 noundef %2, ptr noundef %call6, i64 noundef %call8)
  store i32 %call9, ptr %crc, align 4
  %3 = load i32, ptr %crc, align 4
  ret i32 %3
}