; Function Attrs: mustprogress uwtable
define noundef i32 @_ZNK7rocksdb11CacheRecord10ComputeCRCEv(ptr nocapture noundef nonnull readonly align 8 dereferenceable(48) %this) local_unnamed_addr #0 align 2 {
entry:
  %tmp = alloca %"struct.rocksdb::CacheRecordHeader", align 4
  call void @llvm.memcpy.p0.p0.i64(ptr noundef nonnull align 4 dereferenceable(16) %tmp, ptr noundef nonnull align 8 dereferenceable(16) %this, i64 16, i1 false)
  %crc_ = getelementptr inbounds i8, ptr %tmp, i64 4
  store i32 0, ptr %crc_, align 4
  %call = call noundef i32 @_ZN7rocksdb6crc32c6ExtendEjPKcm(i32 noundef 0, ptr noundef nonnull %tmp, i64 noundef 16)
  %key_ = getelementptr inbounds i8, ptr %this, i64 16
  %0 = load ptr, ptr %key_, align 8
  %size_.i = getelementptr inbounds i8, ptr %this, i64 24
  %1 = load i64, ptr %size_.i, align 8
  %call5 = call noundef i32 @_ZN7rocksdb6crc32c6ExtendEjPKcm(i32 noundef %call, ptr noundef %0, i64 noundef %1)
  %val_ = getelementptr inbounds i8, ptr %this, i64 32
  %2 = load ptr, ptr %val_, align 8
  %size_.i4 = getelementptr inbounds i8, ptr %this, i64 40
  %3 = load i64, ptr %size_.i4, align 8
  %call9 = call noundef i32 @_ZN7rocksdb6crc32c6ExtendEjPKcm(i32 noundef %call5, ptr noundef %2, i64 noundef %3)
  ret i32 %call9
}